target datalayout = "e-m:e-p270:32:32-p271:32:32-p272:64:64-i64:64-i128:128-f80:128-n8:16:32:64-S128"
target triple = "x86_64-pc-linux-gnu"

%struct._packet_info = type { ptr, ptr, i32, i32, %struct.nstime_t, %struct.nstime_t, %struct.nstime_t, i8, ptr, ptr, ptr, ptr, %struct._address, %struct._address, %struct._address, %struct._address, %struct._address, %struct._address, i32, ptr, i8, [3 x i8], %struct.anon, i32, i32, i32, i32, ptr, i8, ptr, ptr, i16, i16, i32, i32, i16, i32, i32, ptr, ptr, ptr, i8, i8, i16, i16, i16, i32, i16, i16, ptr, ptr, ptr, ptr, ptr, i32, i32 }
%struct.nstime_t = type { i64, i32 }
%struct._address = type { i32, i32, ptr, ptr }
%struct.anon = type { i8, [3 x i8] }

@hf_docsis_dpv_flags = internal global i32 0, align 4
@hf_docsis_dpv_us_sf = internal global i32 0, align 4
@hf_docsis_dpv_n = internal global i32 0, align 4
@hf_docsis_dpv_start = internal global i32 0, align 4
@hf_docsis_dpv_end = internal global i32 0, align 4
@hf_docsis_dpv_ts_start = internal global i32 0, align 4
@hf_docsis_dpv_ts_end = internal global i32 0, align 4
@hf_docsis_mgt_down_chid = internal global i32 0, align 4
@hf_docsis_mgt_tranid = internal global i32 0, align 4
@ett_docsis_dpvrsp = internal global i32 0, align 4
@proto_docsis_dpvrsp = internal global i32 0, align 4
@.str.2208 = private unnamed_addr constant [58 x i8] c"DOCSIS Path Verify Response: Transaction ID = %u DS-Ch %d\00", align 1

; Function Attrs: null_pointer_is_valid sspstrong uwtable
define internal i32 @dissect_dpvrsp(ptr noundef %0, ptr noundef %1, ptr noundef %2, ptr noundef %3) #0 {
  %5 = alloca ptr, align 8
  %6 = alloca ptr, align 8
  %7 = alloca ptr, align 8
  %8 = alloca ptr, align 8
  %9 = alloca ptr, align 8
  %10 = alloca ptr, align 8
  %11 = alloca i32, align 4
  %12 = alloca i32, align 4
  store ptr %0, ptr %5, align 8
  store ptr %1, ptr %6, align 8
  store ptr %2, ptr %7, align 8
  store ptr %3, ptr %8, align 8
  call void @llvm.lifetime.start.p0(i64 8, ptr %9) #6
  call void @llvm.lifetime.start.p0(i64 8, ptr %10) #6
  store ptr null, ptr %10, align 8
  call void @llvm.lifetime.start.p0(i64 4, ptr %11) #6
  call void @llvm.lifetime.start.p0(i64 4, ptr %12) #6
  %13 = load ptr, ptr %7, align 8
  %14 = load i32, ptr @proto_docsis_dpvrsp, align 4
  %15 = load ptr, ptr %5, align 8
  %16 = call ptr @proto_tree_add_item(ptr noundef %13, i32 noundef %14, ptr noundef %15, i32 noundef 0, i32 noundef -1, i32 noundef 0)
  store ptr %16, ptr %9, align 8
  %17 = load ptr, ptr %9, align 8
  %18 = load i32, ptr @ett_docsis_dpvrsp, align 4
  %19 = call ptr @proto_item_add_subtree(ptr noundef %17, i32 noundef %18)
  store ptr %19, ptr %10, align 8
  %20 = load ptr, ptr %10, align 8
  %21 = load i32, ptr @hf_docsis_mgt_tranid, align 4
  %22 = load ptr, ptr %5, align 8
  %23 = call ptr @proto_tree_add_item_ret_uint(ptr noundef %20, i32 noundef %21, ptr noundef %22, i32 noundef 0, i32 noundef 2, i32 noundef 0, ptr noundef %11)
  %24 = load ptr, ptr %10, align 8
  %25 = load i32, ptr @hf_docsis_mgt_down_chid, align 4
  %26 = load ptr, ptr %5, align 8
  %27 = call ptr @proto_tree_add_item_ret_uint(ptr noundef %24, i32 noundef %25, ptr noundef %26, i32 noundef 2, i32 noundef 1, i32 noundef 0, ptr noundef %12)
  %28 = load ptr, ptr %6, align 8
  %29 = getelementptr inbounds nuw %struct._packet_info, ptr %28, i32 0, i32 1
  %30 = load ptr, ptr %29, align 8
  %31 = load i32, ptr %11, align 4
  %32 = load i32, ptr %12, align 4
  call void (ptr, i32, ptr, ...) @col_add_fstr(ptr noundef %30, i32 noundef 25, ptr noundef @.str.2208, i32 noundef %31, i32 noundef %32)
  %33 = load ptr, ptr %10, align 8
  %34 = load i32, ptr @hf_docsis_dpv_flags, align 4
  %35 = load ptr, ptr %5, align 8
  %36 = call ptr @proto_tree_add_item(ptr noundef %33, i32 noundef %34, ptr noundef %35, i32 noundef 3, i32 noundef 1, i32 noundef 0)
  %37 = load ptr, ptr %10, align 8
  %38 = load i32, ptr @hf_docsis_dpv_us_sf, align 4
  %39 = load ptr, ptr %5, align 8
  %40 = call ptr @proto_tree_add_item(ptr noundef %37, i32 noundef %38, ptr noundef %39, i32 noundef 4, i32 noundef 4, i32 noundef 0)
  %41 = load ptr, ptr %10, align 8
  %42 = load i32, ptr @hf_docsis_dpv_n, align 4
  %43 = load ptr, ptr %5, align 8
  %44 = call ptr @proto_tree_add_item(ptr noundef %41, i32 noundef %42, ptr noundef %43, i32 noundef 8, i32 noundef 2, i32 noundef 0)
  %45 = load ptr, ptr %10, align 8
  %46 = load i32, ptr @hf_docsis_dpv_start, align 4
  %47 = load ptr, ptr %5, align 8
  %48 = call ptr @proto_tree_add_item(ptr noundef %45, i32 noundef %46, ptr noundef %47, i32 noundef 10, i32 noundef 1, i32 noundef 0)
  %49 = load ptr, ptr %10, align 8
  %50 = load i32, ptr @hf_docsis_dpv_end, align 4
  %51 = load ptr, ptr %5, align 8
  %52 = call ptr @proto_tree_add_item(ptr noundef %49, i32 noundef %50, ptr noundef %51, i32 noundef 11, i32 noundef 1, i32 noundef 0)
  %53 = load ptr, ptr %10, align 8
  %54 = load i32, ptr @hf_docsis_dpv_ts_start, align 4
  %55 = load ptr, ptr %5, align 8
  %56 = call ptr @proto_tree_add_item(ptr noundef %53, i32 noundef %54, ptr noundef %55, i32 noundef 12, i32 noundef 4, i32 noundef 0)
  %57 = load ptr, ptr %10, align 8
  %58 = load i32, ptr @hf_docsis_dpv_ts_end, align 4
  %59 = load ptr, ptr %5, align 8
  %60 = call ptr @proto_tree_add_item(ptr noundef %57, i32 noundef %58, ptr noundef %59, i32 noundef 16, i32 noundef 4, i32 noundef 0)
  %61 = load ptr, ptr %5, align 8
  %62 = call i32 @tvb_captured_length(ptr noundef %61)
  call void @llvm.lifetime.end.p0(i64 4, ptr %12) #6
  call void @llvm.lifetime.end.p0(i64 4, ptr %11) #6
  call void @llvm.lifetime.end.p0(i64 8, ptr %10) #6
  call void @llvm.lifetime.end.p0(i64 8, ptr %9) #6
  ret i32 %62
}