; Function Attrs: null_pointer_is_valid sspstrong uwtable
define internal i32 @dissect_dpvrsp(ptr noundef %0, ptr noundef readonly captures(none) %1, ptr noundef %2, ptr readnone captures(none) %3) #0 {
  %5 = alloca i32, align 4
  %6 = alloca i32, align 4
  call void @llvm.lifetime.start.p0(i64 4, ptr nonnull %5) #6
  call void @llvm.lifetime.start.p0(i64 4, ptr nonnull %6) #6
  %7 = load i32, ptr @proto_docsis_dpvrsp, align 4
  %8 = tail call ptr @proto_tree_add_item(ptr noundef %2, i32 noundef %7, ptr noundef %0, i32 noundef 0, i32 noundef -1, i32 noundef 0)
  %9 = load i32, ptr @ett_docsis_dpvrsp, align 4
  %10 = tail call ptr @proto_item_add_subtree(ptr noundef %8, i32 noundef %9)
  %11 = load i32, ptr @hf_docsis_mgt_tranid, align 4
  %12 = call ptr @proto_tree_add_item_ret_uint(ptr noundef %10, i32 noundef %11, ptr noundef %0, i32 noundef 0, i32 noundef 2, i32 noundef 0, ptr noundef nonnull %5)
  %13 = load i32, ptr @hf_docsis_mgt_down_chid, align 4
  %14 = call ptr @proto_tree_add_item_ret_uint(ptr noundef %10, i32 noundef %13, ptr noundef %0, i32 noundef 2, i32 noundef 1, i32 noundef 0, ptr noundef nonnull %6)
  %15 = getelementptr inbounds nuw i8, ptr %1, i64 8
  %16 = load ptr, ptr %15, align 8
  %17 = load i32, ptr %5, align 4
  %18 = load i32, ptr %6, align 4
  call void (ptr, i32, ptr, ...) @col_add_fstr(ptr noundef %16, i32 noundef 25, ptr noundef nonnull @.str.2208, i32 noundef %17, i32 noundef %18)
  %19 = load i32, ptr @hf_docsis_dpv_flags, align 4
  %20 = call ptr @proto_tree_add_item(ptr noundef %10, i32 noundef %19, ptr noundef %0, i32 noundef 3, i32 noundef 1, i32 noundef 0)
  %21 = load i32, ptr @hf_docsis_dpv_us_sf, align 4
  %22 = call ptr @proto_tree_add_item(ptr noundef %10, i32 noundef %21, ptr noundef %0, i32 noundef 4, i32 noundef 4, i32 noundef 0)
  %23 = load i32, ptr @hf_docsis_dpv_n, align 4
  %24 = call ptr @proto_tree_add_item(ptr noundef %10, i32 noundef %23, ptr noundef %0, i32 noundef 8, i32 noundef 2, i32 noundef 0)
  %25 = load i32, ptr @hf_docsis_dpv_start, align 4
  %26 = call ptr @proto_tree_add_item(ptr noundef %10, i32 noundef %25, ptr noundef %0, i32 noundef 10, i32 noundef 1, i32 noundef 0)
  %27 = load i32, ptr @hf_docsis_dpv_end, align 4
  %28 = call ptr @proto_tree_add_item(ptr noundef %10, i32 noundef %27, ptr noundef %0, i32 noundef 11, i32 noundef 1, i32 noundef 0)
  %29 = load i32, ptr @hf_docsis_dpv_ts_start, align 4
  %30 = call ptr @proto_tree_add_item(ptr noundef %10, i32 noundef %29, ptr noundef %0, i32 noundef 12, i32 noundef 4, i32 noundef 0)
  %31 = load i32, ptr @hf_docsis_dpv_ts_end, align 4
  %32 = call ptr @proto_tree_add_item(ptr noundef %10, i32 noundef %31, ptr noundef %0, i32 noundef 16, i32 noundef 4, i32 noundef 0)
  %33 = call i32 @tvb_captured_length(ptr noundef %0)
  call void @llvm.lifetime.end.p0(i64 4, ptr nonnull %6) #6
  call void @llvm.lifetime.end.p0(i64 4, ptr nonnull %5) #6
  ret i32 %33
}